target datalayout = "e-m:e-p270:32:32-p271:32:32-p272:64:64-i64:64-i128:128-f80:128-n8:16:32:64-S128"
target triple = "x86_64-unknown-linux-gnu"

%class.anon.413 = type { ptr }

; Function Attrs: mustprogress nounwind uwtable
define internal void @"_ZZN8proxygen11HTTPSession11sendHeadersEPNS_15HTTPTransactionERKNS_11HTTPMessageEPNS_14HTTPHeaderSizeEbENK3$_0clIPNS_28HTTPSessionObserverInterfaceEPNS_27HTTPSessionObserverAccessorEEEDaT_T0_"(ptr noundef nonnull align 8 dereferenceable(8) %this, ptr noundef %observer, ptr noundef %observed) #5 align 2 {
entry:
  %this.addr = alloca ptr, align 8
  %observer.addr = alloca ptr, align 8
  %observed.addr = alloca ptr, align 8
  store ptr %this, ptr %this.addr, align 8
  store ptr %observer, ptr %observer.addr, align 8
  store ptr %observed, ptr %observed.addr, align 8
  %this1 = load ptr, ptr %this.addr, align 8
  %0 = load ptr, ptr %observer.addr, align 8
  %1 = load ptr, ptr %observed.addr, align 8
  %2 = getelementptr inbounds %class.anon.413, ptr %this1, i32 0, i32 0
  %3 = load ptr, ptr %2, align 8
  %vtable = load ptr, ptr %0, align 8
  %vfn = getelementptr inbounds ptr, ptr %vtable, i64 2
  %4 = load ptr, ptr %vfn, align 8
  call void %4(ptr noundef nonnull align 8 dereferenceable(8) %0, ptr noundef %1, ptr noundef nonnull align 8 dereferenceable(16) %3) #3
  ret void
}

; Function Attrs: mustprogress uwtable
define internal void @"_ZN5folly6detail8function14FunctionTraitsIFvPN8proxygen28HTTPSessionObserverInterfaceEPNS3_27HTTPSessionObserverAccessorEEE9callSmallIZNS3_11HTTPSession11sendHeadersEPNS3_15HTTPTransactionERKNS3_11HTTPMessageEPNS3_14HTTPHeaderSizeEbE3$_0EEvS5_S7_RNS1_4DataE"(ptr noundef %args, ptr noundef %args1, ptr noundef nonnull align 16 dereferenceable(48) %p) #4 align 2 {
entry:
  %args.addr = alloca ptr, align 8
  %args.addr2 = alloca ptr, align 8
  %p.addr = alloca ptr, align 8
  %fn = alloca ptr, align 8
  store ptr %args, ptr %args.addr, align 8
  store ptr %args1, ptr %args.addr2, align 8
  store ptr %p, ptr %p.addr, align 8
  %0 = load ptr, ptr %p.addr, align 8
  store ptr %0, ptr %fn, align 8
  %1 = load ptr, ptr %fn, align 8
  %2 = load ptr, ptr %args.addr, align 8
  %3 = load ptr, ptr %args.addr2, align 8
  call void @"_ZZN8proxygen11HTTPSession11sendHeadersEPNS_15HTTPTransactionERKNS_11HTTPMessageEPNS_14HTTPHeaderSizeEbENK3$_0clIPNS_28HTTPSessionObserverInterfaceEPNS_27HTTPSessionObserverAccessorEEEDaT_T0_"(ptr noundef nonnull align 8 dereferenceable(8) %1, ptr noundef %2, ptr noundef %3)
  ret void
}