; Function Attrs: mustprogress uwtable
define internal void @"_ZN5folly6detail8function14FunctionTraitsIFvPN8proxygen28HTTPSessionObserverInterfaceEPNS3_27HTTPSessionObserverAccessorEEE9callSmallIZNS3_11HTTPSession11sendHeadersEPNS3_15HTTPTransactionERKNS3_11HTTPMessageEPNS3_14HTTPHeaderSizeEbE3$_0EEvS5_S7_RNS1_4DataE"(ptr noundef %args, ptr noundef %args1, ptr nocapture noundef nonnull readonly align 16 dereferenceable(48) %p) #3 align 2 {
entry:
  %p.val = load ptr, ptr %p, align 16
  %vtable.i = load ptr, ptr %args, align 8
  %vfn.i = getelementptr inbounds i8, ptr %vtable.i, i64 16
  %0 = load ptr, ptr %vfn.i, align 8
  tail call void %0(ptr noundef nonnull align 8 dereferenceable(8) %args, ptr noundef %args1, ptr noundef nonnull align 8 dereferenceable(16) %p.val) #39
  ret void
}